; Function Attrs: mustprogress nofree norecurse nosync nounwind willreturn memory(readwrite, inaccessiblemem: none) uwtable
define hidden void @_PyFunction_ClearCodeByVersion(i32 noundef %0) local_unnamed_addr #3 {
  %2 = tail call align 8 ptr @llvm.threadlocal.address.p0(ptr align 8 @_Py_tss_tstate)
  %3 = load ptr, ptr %2, align 8, !tbaa !4
  %4 = getelementptr inbounds nuw i8, ptr %3, i64 16
  %5 = load ptr, ptr %4, align 8, !tbaa !9
  %6 = getelementptr inbounds nuw i8, ptr %5, i64 14112
  %7 = and i32 %0, 4095
  %8 = zext nneg i32 %7 to i64
  %9 = getelementptr %struct._func_version_cache_item, ptr %6, i64 %8
  %10 = getelementptr inbounds nuw i8, ptr %9, i64 8
  %11 = load ptr, ptr %10, align 8, !tbaa !139
  %.not = icmp eq ptr %11, null
  br i1 %.not, label %17, label %12

12:                                               ; preds = %1
  %13 = getelementptr inbounds nuw i8, ptr %11, i64 92
  %14 = load i32, ptr %13, align 4, !tbaa !140
  %15 = icmp eq i32 %14, %0
  br i1 %15, label %16, label %17

16:                                               ; preds = %12
  tail call void @llvm.memset.p0.i64(ptr noundef nonnull align 8 dereferenceable(16) %9, i8 0, i64 16, i1 false)
  br label %17

17:                                               ; preds = %12, %16, %1
  ret void
}